target datalayout = "e-m:e-p270:32:32-p271:32:32-p272:64:64-i64:64-i128:128-f80:128-n8:16:32:64-S128"
target triple = "x86_64-pc-linux-gnu"

%struct.reassembly_table = type { ptr, ptr, ptr, ptr, ptr }
%struct.reassembly_table_functions = type { ptr, ptr, ptr, ptr, ptr, ptr }

@proto_tcpcl = internal global i32 0, align 4
@.str = private unnamed_addr constant [35 x i8] c"DTN TCP Convergence Layer Protocol\00", align 1
@.str.1 = private unnamed_addr constant [6 x i8] c"TCPCL\00", align 1
@.str.2 = private unnamed_addr constant [6 x i8] c"tcpcl\00", align 1
@.str.3 = private unnamed_addr constant [30 x i8] c"TCPCL Extension Subdissectors\00", align 1
@.str.4 = private unnamed_addr constant [11 x i8] c"tcpcl_exts\00", align 1
@proto_tcpcl_exts = internal global i32 0, align 4
@tcpcl_handle = internal global ptr null, align 8
@.str.5 = private unnamed_addr constant [18 x i8] c"tcpcl.v4.sess_ext\00", align 1
@.str.6 = private unnamed_addr constant [26 x i8] c"TCPCLv4 Session Extension\00", align 1
@sess_ext_dissectors = internal global ptr null, align 8
@.str.7 = private unnamed_addr constant [18 x i8] c"tcpcl.v4.xfer_ext\00", align 1
@.str.8 = private unnamed_addr constant [27 x i8] c"TCPCLv4 Transfer Extension\00", align 1
@xfer_ext_dissectors = internal global ptr null, align 8
@.str.9 = private unnamed_addr constant [19 x i8] c"allow_chdr_missing\00", align 1
@.str.10 = private unnamed_addr constant [29 x i8] c"Allow missing Contact Header\00", align 1
@.str.11 = private unnamed_addr constant [153 x i8] c"Whether the TCPCL dissector should use heuristic dissection of messages in the absence of a Contact Header (if the capture misses the start of session).\00", align 1
@tcpcl_chdr_missing = internal global i32 3, align 4
@.str.12 = private unnamed_addr constant [17 x i8] c"analyze_sequence\00", align 1
@.str.13 = private unnamed_addr constant [26 x i8] c"Analyze message sequences\00", align 1
@.str.14 = private unnamed_addr constant [95 x i8] c"Whether the TCPCL dissector should analyze the sequencing of the messages within each session.\00", align 1
@tcpcl_analyze_sequence = internal global i8 1, align 1
@.str.15 = private unnamed_addr constant [19 x i8] c"desegment_transfer\00", align 1
@.str.16 = private unnamed_addr constant [41 x i8] c"Reassemble the segments of each transfer\00", align 1
@tcpcl_desegment_transfer = internal global i8 1, align 1
@.str.18 = private unnamed_addr constant [14 x i8] c"decode_bundle\00", align 1
@.str.19 = private unnamed_addr constant [19 x i8] c"Decode bundle data\00", align 1
@.str.20 = private unnamed_addr constant [49 x i8] c"If enabled, the transfer bundle will be decoded.\00", align 1
@tcpcl_decode_bundle = internal global i8 1, align 1
@xfer_reassembly_table = internal global %struct.reassembly_table zeroinitializer, align 8
@xfer_reassembly_table_functions = internal global %struct.reassembly_table_functions { ptr @fragment_key_hash, ptr @fragment_key_equal, ptr @fragment_key_temporary, ptr @fragment_key_persistent, ptr @fragment_key_free_temporary, ptr @fragment_key_free_persistent }, align 8

; Function Attrs: null_pointer_is_valid sspstrong uwtable
define hidden void @proto_register_tcpcl() #0 {
  %1 = alloca ptr, align 8
  %2 = alloca ptr, align 8
  call void @llvm.lifetime.start.p0(i64 8, ptr %1) #11
  %3 = call i32 @proto_register_protocol(ptr noundef @.str, ptr noundef @.str.1, ptr noundef @.str.2)
  store i32 %3, ptr @proto_tcpcl, align 4
  %4 = load i32, ptr @proto_tcpcl, align 4
  %5 = call i32 @proto_register_protocol_in_name_only(ptr noundef @.str.3, ptr noundef @.str.3, ptr noundef @.str.4, i32 noundef %4, i32 noundef 1)
  store i32 %5, ptr @proto_tcpcl_exts, align 4
  %6 = load i32, ptr @proto_tcpcl, align 4
  call void @proto_register_field_array(i32 noundef %6, ptr noundef @hf_tcpcl, i32 noundef 90)
  call void @proto_register_subtree_array(ptr noundef @ett, i32 noundef 18)
  %7 = load i32, ptr @proto_tcpcl, align 4
  %8 = call ptr @expert_register_protocol(i32 noundef %7)
  store ptr %8, ptr %1, align 8
  %9 = load ptr, ptr %1, align 8
  call void @expert_register_field_array(ptr noundef %9, ptr noundef @ei_tcpcl, i32 noundef 31)
  %10 = load i32, ptr @proto_tcpcl, align 4
  %11 = call ptr @register_dissector(ptr noundef @.str.2, ptr noundef @dissect_tcpcl, i32 noundef %10)
  store ptr %11, ptr @tcpcl_handle, align 8
  %12 = load i32, ptr @proto_tcpcl, align 4
  %13 = call ptr @register_dissector_table(ptr noundef @.str.5, ptr noundef @.str.6, i32 noundef %12, i32 noundef 5, i32 noundef 2)
  store ptr %13, ptr @sess_ext_dissectors, align 8
  %14 = load i32, ptr @proto_tcpcl, align 4
  %15 = call ptr @register_dissector_table(ptr noundef @.str.7, ptr noundef @.str.8, i32 noundef %14, i32 noundef 5, i32 noundef 2)
  store ptr %15, ptr @xfer_ext_dissectors, align 8
  call void @llvm.lifetime.start.p0(i64 8, ptr %2) #11
  %16 = load i32, ptr @proto_tcpcl, align 4
  %17 = call ptr @prefs_register_protocol(i32 noundef %16, ptr noundef @reinit_tcpcl)
  store ptr %17, ptr %2, align 8
  %18 = load ptr, ptr %2, align 8
  call void @prefs_register_enum_preference(ptr noundef %18, ptr noundef @.str.9, ptr noundef @.str.10, ptr noundef @.str.11, ptr noundef @tcpcl_chdr_missing, ptr noundef @chdr_missing_choices, i1 noundef zeroext false)
  %19 = load ptr, ptr %2, align 8
  call void @prefs_register_bool_preference(ptr noundef %19, ptr noundef @.str.12, ptr noundef @.str.13, ptr noundef @.str.14, ptr noundef @tcpcl_analyze_sequence)
  %20 = load ptr, ptr %2, align 8
  call void @prefs_register_bool_preference(ptr noundef %20, ptr noundef @.str.15, ptr noundef @.str.16, ptr noundef @.str.17, ptr noundef @tcpcl_desegment_transfer)
  %21 = load ptr, ptr %2, align 8
  call void @prefs_register_bool_preference(ptr noundef %21, ptr noundef @.str.18, ptr noundef @.str.19, ptr noundef @.str.20, ptr noundef @tcpcl_decode_bundle)
  call void @reassembly_table_register(ptr noundef @xfer_reassembly_table, ptr noundef @xfer_reassembly_table_functions)
  call void @llvm.lifetime.end.p0(i64 8, ptr %2) #11
  call void @llvm.lifetime.end.p0(i64 8, ptr %1) #11
  ret void
}