; Function Attrs: null_pointer_is_valid sspstrong uwtable
define hidden void @proto_register_tcpcl() local_unnamed_addr #0 {
  %1 = tail call i32 @proto_register_protocol(ptr noundef nonnull @.str, ptr noundef nonnull @.str.1, ptr noundef nonnull @.str.2)
  store i32 %1, ptr @proto_tcpcl, align 4
  %2 = tail call i32 @proto_register_protocol_in_name_only(ptr noundef nonnull @.str.3, ptr noundef nonnull @.str.3, ptr noundef nonnull @.str.4, i32 noundef %1, i32 noundef 1)
  store i32 %2, ptr @proto_tcpcl_exts, align 4
  %3 = load i32, ptr @proto_tcpcl, align 4
  tail call void @proto_register_field_array(i32 noundef %3, ptr noundef nonnull @hf_tcpcl, i32 noundef 90)
  tail call void @proto_register_subtree_array(ptr noundef nonnull @ett, i32 noundef 18)
  %4 = load i32, ptr @proto_tcpcl, align 4
  %5 = tail call ptr @expert_register_protocol(i32 noundef %4)
  tail call void @expert_register_field_array(ptr noundef %5, ptr noundef nonnull @ei_tcpcl, i32 noundef 31)
  %6 = load i32, ptr @proto_tcpcl, align 4
  %7 = tail call ptr @register_dissector(ptr noundef nonnull @.str.2, ptr noundef nonnull @dissect_tcpcl, i32 noundef %6)
  store ptr %7, ptr @tcpcl_handle, align 8
  %8 = load i32, ptr @proto_tcpcl, align 4
  %9 = tail call ptr @register_dissector_table(ptr noundef nonnull @.str.5, ptr noundef nonnull @.str.6, i32 noundef %8, i32 noundef 5, i32 noundef 2)
  store ptr %9, ptr @sess_ext_dissectors, align 8
  %10 = load i32, ptr @proto_tcpcl, align 4
  %11 = tail call ptr @register_dissector_table(ptr noundef nonnull @.str.7, ptr noundef nonnull @.str.8, i32 noundef %10, i32 noundef 5, i32 noundef 2)
  store ptr %11, ptr @xfer_ext_dissectors, align 8
  %12 = load i32, ptr @proto_tcpcl, align 4
  %13 = tail call ptr @prefs_register_protocol(i32 noundef %12, ptr noundef nonnull @reinit_tcpcl)
  tail call void @prefs_register_enum_preference(ptr noundef %13, ptr noundef nonnull @.str.9, ptr noundef nonnull @.str.10, ptr noundef nonnull @.str.11, ptr noundef nonnull @tcpcl_chdr_missing, ptr noundef nonnull @chdr_missing_choices, i1 noundef zeroext false)
  tail call void @prefs_register_bool_preference(ptr noundef %13, ptr noundef nonnull @.str.12, ptr noundef nonnull @.str.13, ptr noundef nonnull @.str.14, ptr noundef nonnull @tcpcl_analyze_sequence)
  tail call void @prefs_register_bool_preference(ptr noundef %13, ptr noundef nonnull @.str.15, ptr noundef nonnull @.str.16, ptr noundef nonnull @.str.17, ptr noundef nonnull @tcpcl_desegment_transfer)
  tail call void @prefs_register_bool_preference(ptr noundef %13, ptr noundef nonnull @.str.18, ptr noundef nonnull @.str.19, ptr noundef nonnull @.str.20, ptr noundef nonnull @tcpcl_decode_bundle)
  tail call void @reassembly_table_register(ptr noundef nonnull @xfer_reassembly_table, ptr noundef nonnull @xfer_reassembly_table_functions)
  ret void
}